; Function Attrs: nounwind uwtable
define dso_local zeroext i1 @pg_verifymbstr(ptr noundef %0, i32 noundef %1, i1 noundef zeroext %2) local_unnamed_addr #0 {
  %4 = load ptr, ptr @DatabaseEncoding, align 8
  %5 = getelementptr inbounds nuw i8, ptr %4, i64 8
  %6 = load i32, ptr %5, align 8
  %7 = sext i32 %6 to i64
  %8 = getelementptr inbounds [0 x %struct.pg_wchar_tbl], ptr @pg_wchar_table, i64 0, i64 %7, i32 5
  %9 = load ptr, ptr %8, align 8
  %10 = tail call i32 %9(ptr noundef %0, i32 noundef %1) #13
  %.not.i = icmp eq i32 %10, %1
  %brmerge.i = or i1 %2, %.not.i
  br i1 %brmerge.i, label %pg_verify_mbstr.exit, label %11

11:                                               ; preds = %3
  %12 = sext i32 %10 to i64
  %13 = getelementptr inbounds i8, ptr %0, i64 %12
  %14 = sub i32 %1, %10
  tail call void @report_invalid_encoding(i32 noundef %6, ptr noundef %13, i32 noundef %14) #15
  unreachable

pg_verify_mbstr.exit:                             ; preds = %3
  ret i1 %.not.i
}